target datalayout = "e-m:e-p270:32:32-p271:32:32-p272:64:64-i64:64-i128:128-f80:128-n8:16:32:64-S128"
target triple = "x86_64-pc-linux-gnu"

; Function Attrs: mustprogress uwtable
define internal noundef i32 @_ZL6andauxP9lua_State(ptr noundef %0) #0 {
  %2 = alloca ptr, align 8
  %3 = alloca i32, align 4
  %4 = alloca i32, align 4
  %5 = alloca i32, align 4
  store ptr %0, ptr %2, align 8, !tbaa !4
  call void @llvm.lifetime.start.p0(i64 4, ptr %3) #4
  call void @llvm.lifetime.start.p0(i64 4, ptr %4) #4
  %6 = load ptr, ptr %2, align 8, !tbaa !4
  %7 = call noundef i32 @_Z10lua_gettopP9lua_State(ptr noundef %6)
  store i32 %7, ptr %4, align 4, !tbaa !9
  call void @llvm.lifetime.start.p0(i64 4, ptr %5) #4
  store i32 -1, ptr %5, align 4, !tbaa !9
  store i32 1, ptr %3, align 4, !tbaa !9
  br label %8

8:                                                ; preds = %18, %1
  %9 = load i32, ptr %3, align 4, !tbaa !9
  %10 = load i32, ptr %4, align 4, !tbaa !9
  %11 = icmp sle i32 %9, %10
  br i1 %11, label %12, label %21

12:                                               ; preds = %8
  %13 = load ptr, ptr %2, align 8, !tbaa !4
  %14 = load i32, ptr %3, align 4, !tbaa !9
  %15 = call noundef i32 @_Z18luaL_checkunsignedP9lua_Statei(ptr noundef %13, i32 noundef %14)
  %16 = load i32, ptr %5, align 4, !tbaa !9
  %17 = and i32 %16, %15
  store i32 %17, ptr %5, align 4, !tbaa !9
  br label %18

18:                                               ; preds = %12
  %19 = load i32, ptr %3, align 4, !tbaa !9
  %20 = add nsw i32 %19, 1
  store i32 %20, ptr %3, align 4, !tbaa !9
  br label %8, !llvm.loop !16

21:                                               ; preds = %8
  %22 = load i32, ptr %5, align 4, !tbaa !9
  %23 = and i32 %22, -1
  call void @llvm.lifetime.end.p0(i64 4, ptr %5) #4
  call void @llvm.lifetime.end.p0(i64 4, ptr %4) #4
  call void @llvm.lifetime.end.p0(i64 4, ptr %3) #4
  ret i32 %23
}

; Function Attrs: mustprogress uwtable
define internal noundef i32 @_ZL6b_testP9lua_State(ptr noundef %0) #0 {
  %2 = alloca ptr, align 8
  %3 = alloca i32, align 4
  store ptr %0, ptr %2, align 8, !tbaa !4
  call void @llvm.lifetime.start.p0(i64 4, ptr %3) #4
  %4 = load ptr, ptr %2, align 8, !tbaa !4
  %5 = call noundef i32 @_ZL6andauxP9lua_State(ptr noundef %4)
  store i32 %5, ptr %3, align 4, !tbaa !9
  %6 = load ptr, ptr %2, align 8, !tbaa !4
  %7 = load i32, ptr %3, align 4, !tbaa !9
  %8 = icmp ne i32 %7, 0
  %9 = zext i1 %8 to i32
  call void @_Z15lua_pushbooleanP9lua_Statei(ptr noundef %6, i32 noundef %9)
  call void @llvm.lifetime.end.p0(i64 4, ptr %3) #4
  ret i32 1
}