; Function Attrs: mustprogress uwtable
define internal noundef i32 @_ZL6b_testP9lua_State(ptr noundef %0) #0 {
  %2 = tail call noundef i32 @_Z10lua_gettopP9lua_State(ptr noundef %0)
  %.not8.i = icmp slt i32 %2, 1
  br i1 %.not8.i, label %_ZL6andauxP9lua_State.exit, label %.lr.ph.i

.lr.ph.i:                                         ; preds = %1, %.lr.ph.i
  %.010.i = phi i32 [ %4, %.lr.ph.i ], [ -1, %1 ]
  %.079.i = phi i32 [ %5, %.lr.ph.i ], [ 1, %1 ]
  %3 = tail call noundef i32 @_Z18luaL_checkunsignedP9lua_Statei(ptr noundef %0, i32 noundef %.079.i)
  %4 = and i32 %3, %.010.i
  %5 = add nuw i32 %.079.i, 1
  %exitcond.not.i = icmp eq i32 %.079.i, %2
  br i1 %exitcond.not.i, label %_ZL6andauxP9lua_State.exit.loopexit, label %.lr.ph.i, !llvm.loop !4

_ZL6andauxP9lua_State.exit.loopexit:              ; preds = %.lr.ph.i
  %6 = icmp ne i32 %4, 0
  %7 = zext i1 %6 to i32
  br label %_ZL6andauxP9lua_State.exit

_ZL6andauxP9lua_State.exit:                       ; preds = %_ZL6andauxP9lua_State.exit.loopexit, %1
  %.0.lcssa.i = phi i32 [ 1, %1 ], [ %7, %_ZL6andauxP9lua_State.exit.loopexit ]
  tail call void @_Z15lua_pushbooleanP9lua_Statei(ptr noundef %0, i32 noundef %.0.lcssa.i)
  ret i32 1
}